; Function Attrs: mustprogress uwtable
define hidden void @_ZN4cvc58internal6theory7strings13CoreInferInfoC2ENS1_11InferenceIdE(ptr noundef nonnull align 8 dereferenceable(225) %this, i32 noundef %id) unnamed_addr #3 align 2 personality ptr @__gxx_personality_v0 {
entry:
  tail call void @_ZN4cvc58internal6theory7strings9InferInfoC1ENS1_11InferenceIdE(ptr noundef nonnull align 8 dereferenceable(200) %this, i32 noundef %id)
  %d_index = getelementptr inbounds i8, ptr %this, i64 200
  store i32 0, ptr %d_index, align 8
  %d_i = getelementptr inbounds i8, ptr %this, i64 208
  %0 = load atomic i8, ptr @_ZGVZN4cvc58internal4expr9NodeValue4nullEvE6s_null acquire, align 8
  %guard.uninitialized.i.i = icmp eq i8 %0, 0
  br i1 %guard.uninitialized.i.i, label %init.check.i.i, label %invoke.cont, !prof !4

init.check.i.i:                                   ; preds = %entry
  %1 = tail call i32 @__cxa_guard_acquire(ptr nonnull @_ZGVZN4cvc58internal4expr9NodeValue4nullEvE6s_null) #21
  %tobool.not.i.i = icmp eq i32 %1, 0
  br i1 %tobool.not.i.i, label %invoke.cont, label %init.i.i

init.i.i:                                         ; preds = %init.check.i.i
  %call.i.i = invoke noalias noundef nonnull dereferenceable(16) ptr @_Znwm(i64 noundef 16) #22
          to label %invoke.cont.i.i unwind label %lpad.i.i

invoke.cont.i.i:                                  ; preds = %init.i.i
  store i64 1152920405095219200, ptr %call.i.i, align 8
  %d_kind.i.i.i = getelementptr inbounds i8, ptr %call.i.i, i64 8
  store i16 0, ptr %d_kind.i.i.i, align 8
  %d_nchildren.i.i.i = getelementptr inbounds i8, ptr %call.i.i, i64 12
  store i32 0, ptr %d_nchildren.i.i.i, align 4
  store ptr %call.i.i, ptr @_ZZN4cvc58internal4expr9NodeValue4nullEvE6s_null, align 8
  tail call void @__cxa_guard_release(ptr nonnull @_ZGVZN4cvc58internal4expr9NodeValue4nullEvE6s_null) #21
  br label %invoke.cont

lpad.i.i:                                         ; preds = %init.i.i
  %2 = landingpad { ptr, i32 }
          cleanup
  tail call void @__cxa_guard_abort(ptr nonnull @_ZGVZN4cvc58internal4expr9NodeValue4nullEvE6s_null) #21
  br label %ehcleanup

invoke.cont:                                      ; preds = %invoke.cont.i.i, %init.check.i.i, %entry
  %3 = load ptr, ptr @_ZZN4cvc58internal4expr9NodeValue4nullEvE6s_null, align 8
  store ptr %3, ptr %d_i, align 8
  %4 = load atomic i8, ptr @_ZGVZN4cvc58internal4expr9NodeValue4nullEvE6s_null acquire, align 8
  %guard.uninitialized.i.i2 = icmp eq i8 %4, 0
  br i1 %guard.uninitialized.i.i2, label %init.check.i.i3, label %invoke.cont3, !prof !4

init.check.i.i3:                                  ; preds = %invoke.cont
  %5 = tail call i32 @__cxa_guard_acquire(ptr nonnull @_ZGVZN4cvc58internal4expr9NodeValue4nullEvE6s_null) #21
  %tobool.not.i.i4 = icmp eq i32 %5, 0
  br i1 %tobool.not.i.i4, label %invoke.cont3, label %init.i.i5

init.i.i5:                                        ; preds = %init.check.i.i3
  %call.i.i6 = invoke noalias noundef nonnull dereferenceable(16) ptr @_Znwm(i64 noundef 16) #22
          to label %invoke.cont.i.i8 unwind label %lpad.i.i7

invoke.cont.i.i8:                                 ; preds = %init.i.i5
  store i64 1152920405095219200, ptr %call.i.i6, align 8
  %d_kind.i.i.i9 = getelementptr inbounds i8, ptr %call.i.i6, i64 8
  store i16 0, ptr %d_kind.i.i.i9, align 8
  %d_nchildren.i.i.i10 = getelementptr inbounds i8, ptr %call.i.i6, i64 12
  store i32 0, ptr %d_nchildren.i.i.i10, align 4
  store ptr %call.i.i6, ptr @_ZZN4cvc58internal4expr9NodeValue4nullEvE6s_null, align 8
  tail call void @__cxa_guard_release(ptr nonnull @_ZGVZN4cvc58internal4expr9NodeValue4nullEvE6s_null) #21
  br label %invoke.cont3

lpad.i.i7:                                        ; preds = %init.i.i5
  %6 = landingpad { ptr, i32 }
          cleanup
  tail call void @__cxa_guard_abort(ptr nonnull @_ZGVZN4cvc58internal4expr9NodeValue4nullEvE6s_null) #21
  tail call void @_ZN4cvc58internal12NodeTemplateILb1EED2Ev(ptr noundef nonnull align 8 dereferenceable(8) %d_i) #21
  br label %ehcleanup

invoke.cont3:                                     ; preds = %invoke.cont.i.i8, %init.check.i.i3, %invoke.cont
  %d_j = getelementptr inbounds i8, ptr %this, i64 216
  %7 = load ptr, ptr @_ZZN4cvc58internal4expr9NodeValue4nullEvE6s_null, align 8
  store ptr %7, ptr %d_j, align 8
  %d_rev = getelementptr inbounds i8, ptr %this, i64 224
  store i8 0, ptr %d_rev, align 8
  ret void

ehcleanup:                                        ; preds = %lpad.i.i, %lpad.i.i7
  %.pn = phi { ptr, i32 } [ %6, %lpad.i.i7 ], [ %2, %lpad.i.i ]
  tail call void @_ZN4cvc58internal6theory7strings9InferInfoD2Ev(ptr noundef nonnull align 8 dereferenceable(200) %this) #21
  resume { ptr, i32 } %.pn
}